target datalayout = "e-m:e-p270:32:32-p271:32:32-p272:64:64-i64:64-i128:128-f80:128-n8:16:32:64-S128"
target triple = "x86_64-pc-linux-gnu"

%struct.Gia_Man_t_ = type { ptr, ptr, i32, i32, i32, i32, ptr, ptr, i32, i32, i32, ptr, ptr, %struct.Vec_Int_t_, %struct.Vec_Int_t_, i32, i32, i32, %struct.Vec_Int_t_, ptr, ptr, ptr, i32, i32, i32, i32, ptr, ptr, ptr, ptr, ptr, i32, i32, ptr, i32, ptr, ptr, ptr, ptr, ptr, ptr, ptr, ptr, ptr, ptr, ptr, ptr, ptr, ptr, ptr, ptr, ptr, ptr, %struct.Vec_Int_t_, %struct.Vec_Int_t_, ptr, ptr, ptr, ptr, ptr, ptr, ptr, ptr, ptr, ptr, ptr, ptr, ptr, ptr, ptr, ptr, ptr, ptr, ptr, ptr, ptr, i32, float, float, ptr, ptr, i32, ptr, ptr, ptr, ptr, ptr, ptr, ptr, ptr, ptr, ptr, ptr, ptr, ptr, ptr, ptr, i64, i64, ptr, ptr, i32, i32, i32, i32, i32, i32, i32, i32, i32, i32, i32, i32, ptr, ptr, ptr, ptr, ptr, ptr, ptr, ptr, i32, i32, i32, ptr, i32, i32, ptr, ptr, ptr, ptr, ptr, ptr, i32, i32, ptr, %struct.Vec_Int_t_, %struct.Vec_Int_t_, %struct.Vec_Int_t_, ptr, ptr, ptr, i32, i32, i32, i32, ptr, ptr, ptr, ptr, ptr }
%struct.Vec_Int_t_ = type { i32, i32, ptr }
%struct.Gia_Obj_t_ = type <{ i64, i32 }>

@.str.8 = private unnamed_addr constant [2 x i8] c"\0A\00", align 1
@.str.31 = private unnamed_addr constant [7 x i8] c"%4c : \00", align 1
@.str.32 = private unnamed_addr constant [4 x i8] c"%4d\00", align 1
@.str.33 = private unnamed_addr constant [7 x i8] c"%4d : \00", align 1
@.str.34 = private unnamed_addr constant [4 x i8] c"%4c\00", align 1

; Function Attrs: inlinehint nounwind uwtable
define internal i32 @Gia_ObjFaninId0(ptr noundef %0, i32 noundef %1) #3 {
  %3 = alloca ptr, align 8
  %4 = alloca i32, align 4
  store ptr %0, ptr %3, align 8, !tbaa !39
  store i32 %1, ptr %4, align 4, !tbaa !8
  %5 = load i32, ptr %4, align 4, !tbaa !8
  %6 = load ptr, ptr %3, align 8, !tbaa !39
  %7 = load i64, ptr %6, align 4
  %8 = and i64 %7, 536870911
  %9 = trunc i64 %8 to i32
  %10 = sub nsw i32 %5, %9
  ret i32 %10
}

; Function Attrs: inlinehint nounwind uwtable
define internal i32 @Gia_ObjId(ptr noundef %0, ptr noundef %1) #3 {
  %3 = alloca ptr, align 8
  %4 = alloca ptr, align 8
  store ptr %0, ptr %3, align 8, !tbaa !3
  store ptr %1, ptr %4, align 8, !tbaa !39
  %5 = load ptr, ptr %4, align 8, !tbaa !39
  %6 = load ptr, ptr %3, align 8, !tbaa !3
  %7 = getelementptr inbounds nuw %struct.Gia_Man_t_, ptr %6, i32 0, i32 6
  %8 = load ptr, ptr %7, align 8, !tbaa !60
  %9 = ptrtoint ptr %5 to i64
  %10 = ptrtoint ptr %8 to i64
  %11 = sub i64 %9, %10
  %12 = sdiv exact i64 %11, 12
  %13 = trunc i64 %12 to i32
  ret i32 %13
}

; Function Attrs: inlinehint nounwind uwtable
define internal ptr @Gia_ManObj(ptr noundef %0, i32 noundef %1) #3 {
  %3 = alloca ptr, align 8
  %4 = alloca i32, align 4
  store ptr %0, ptr %3, align 8, !tbaa !3
  store i32 %1, ptr %4, align 4, !tbaa !8
  %5 = load ptr, ptr %3, align 8, !tbaa !3
  %6 = getelementptr inbounds nuw %struct.Gia_Man_t_, ptr %5, i32 0, i32 6
  %7 = load ptr, ptr %6, align 8, !tbaa !60
  %8 = load i32, ptr %4, align 4, !tbaa !8
  %9 = sext i32 %8 to i64
  %10 = getelementptr inbounds %struct.Gia_Obj_t_, ptr %7, i64 %9
  ret ptr %10
}

; Function Attrs: inlinehint nounwind uwtable
define internal i32 @Vec_IntEntry(ptr noundef %0, i32 noundef %1) #3 {
  %3 = alloca ptr, align 8
  %4 = alloca i32, align 4
  store ptr %0, ptr %3, align 8, !tbaa !54
  store i32 %1, ptr %4, align 4, !tbaa !8
  %5 = load ptr, ptr %3, align 8, !tbaa !54
  %6 = getelementptr inbounds nuw %struct.Vec_Int_t_, ptr %5, i32 0, i32 2
  %7 = load ptr, ptr %6, align 8, !tbaa !57
  %8 = load i32, ptr %4, align 4, !tbaa !8
  %9 = sext i32 %8 to i64
  %10 = getelementptr inbounds i32, ptr %7, i64 %9
  %11 = load i32, ptr %10, align 4, !tbaa !8
  ret i32 %11
}

; Function Attrs: inlinehint nounwind uwtable
define internal i32 @Abc_Var2Lit(i32 noundef %0, i32 noundef %1) #3 {
  %3 = alloca i32, align 4
  %4 = alloca i32, align 4
  store i32 %0, ptr %3, align 4, !tbaa !8
  store i32 %1, ptr %4, align 4, !tbaa !8
  %5 = load i32, ptr %3, align 4, !tbaa !8
  %6 = load i32, ptr %3, align 4, !tbaa !8
  %7 = add nsw i32 %5, %6
  %8 = load i32, ptr %4, align 4, !tbaa !8
  %9 = add nsw i32 %7, %8
  ret i32 %9
}

; Function Attrs: inlinehint nounwind uwtable
define internal i32 @Gia_ObjFaninC0(ptr noundef %0) #3 {
  %2 = alloca ptr, align 8
  store ptr %0, ptr %2, align 8, !tbaa !39
  %3 = load ptr, ptr %2, align 8, !tbaa !39
  %4 = load i64, ptr %3, align 4
  %5 = lshr i64 %4, 29
  %6 = and i64 %5, 1
  %7 = trunc i64 %6 to i32
  ret i32 %7
}

; Function Attrs: inlinehint nounwind uwtable
define internal i32 @Gia_ObjFaninId0p(ptr noundef %0, ptr noundef %1) #3 {
  %3 = alloca ptr, align 8
  %4 = alloca ptr, align 8
  store ptr %0, ptr %3, align 8, !tbaa !3
  store ptr %1, ptr %4, align 8, !tbaa !39
  %5 = load ptr, ptr %4, align 8, !tbaa !39
  %6 = load ptr, ptr %3, align 8, !tbaa !3
  %7 = load ptr, ptr %4, align 8, !tbaa !39
  %8 = call i32 @Gia_ObjId(ptr noundef %6, ptr noundef %7)
  %9 = call i32 @Gia_ObjFaninId0(ptr noundef %5, i32 noundef %8)
  ret i32 %9
}

; Function Attrs: inlinehint nounwind uwtable
define internal ptr @Gia_ManCo(ptr noundef %0, i32 noundef %1) #3 {
  %3 = alloca ptr, align 8
  %4 = alloca i32, align 4
  store ptr %0, ptr %3, align 8, !tbaa !3
  store i32 %1, ptr %4, align 4, !tbaa !8
  %5 = load ptr, ptr %3, align 8, !tbaa !3
  %6 = load ptr, ptr %3, align 8, !tbaa !3
  %7 = getelementptr inbounds nuw %struct.Gia_Man_t_, ptr %6, i32 0, i32 12
  %8 = load ptr, ptr %7, align 8, !tbaa !59
  %9 = load i32, ptr %4, align 4, !tbaa !8
  %10 = call i32 @Vec_IntEntry(ptr noundef %8, i32 noundef %9)
  %11 = call ptr @Gia_ManObj(ptr noundef %5, i32 noundef %10)
  ret ptr %11
}

; Function Attrs: inlinehint nounwind uwtable
define internal i32 @Vec_IntSize(ptr noundef %0) #3 {
  %2 = alloca ptr, align 8
  store ptr %0, ptr %2, align 8, !tbaa !54
  %3 = load ptr, ptr %2, align 8, !tbaa !54
  %4 = getelementptr inbounds nuw %struct.Vec_Int_t_, ptr %3, i32 0, i32 1
  %5 = load i32, ptr %4, align 4, !tbaa !55
  ret i32 %5
}

; Function Attrs: inlinehint nounwind uwtable
define internal i32 @Gia_ObjFaninLit0p(ptr noundef %0, ptr noundef %1) #3 {
  %3 = alloca ptr, align 8
  %4 = alloca ptr, align 8
  store ptr %0, ptr %3, align 8, !tbaa !3
  store ptr %1, ptr %4, align 8, !tbaa !39
  %5 = load ptr, ptr %3, align 8, !tbaa !3
  %6 = load ptr, ptr %4, align 8, !tbaa !39
  %7 = call i32 @Gia_ObjFaninId0p(ptr noundef %5, ptr noundef %6)
  %8 = load ptr, ptr %4, align 8, !tbaa !39
  %9 = call i32 @Gia_ObjFaninC0(ptr noundef %8)
  %10 = call i32 @Abc_Var2Lit(i32 noundef %7, i32 noundef %9)
  ret i32 %10
}

; Function Attrs: inlinehint nounwind uwtable
define internal ptr @Gia_ManPo(ptr noundef %0, i32 noundef %1) #3 {
  %3 = alloca ptr, align 8
  %4 = alloca i32, align 4
  store ptr %0, ptr %3, align 8, !tbaa !3
  store i32 %1, ptr %4, align 4, !tbaa !8
  %5 = load ptr, ptr %3, align 8, !tbaa !3
  %6 = load i32, ptr %4, align 4, !tbaa !8
  %7 = call ptr @Gia_ManCo(ptr noundef %5, i32 noundef %6)
  ret ptr %7
}

; Function Attrs: inlinehint nounwind uwtable
define internal i32 @Gia_ManPiNum(ptr noundef %0) #3 {
  %2 = alloca ptr, align 8
  store ptr %0, ptr %2, align 8, !tbaa !3
  %3 = load ptr, ptr %2, align 8, !tbaa !3
  %4 = getelementptr inbounds nuw %struct.Gia_Man_t_, ptr %3, i32 0, i32 11
  %5 = load ptr, ptr %4, align 8, !tbaa !58
  %6 = call i32 @Vec_IntSize(ptr noundef %5)
  %7 = load ptr, ptr %2, align 8, !tbaa !3
  %8 = getelementptr inbounds nuw %struct.Gia_Man_t_, ptr %7, i32 0, i32 2
  %9 = load i32, ptr %8, align 8, !tbaa !103
  %10 = sub nsw i32 %6, %9
  ret i32 %10
}

; Function Attrs: nounwind uwtable
define void @Gia_ManPrintDsdMatrix(ptr noundef %0, i32 noundef %1) #0 {
  %3 = alloca ptr, align 8
  %4 = alloca i32, align 4
  %5 = alloca ptr, align 8
  %6 = alloca i32, align 4
  %7 = alloca i32, align 4
  %8 = alloca i32, align 4
  %9 = alloca i32, align 4
  %10 = alloca ptr, align 8
  store ptr %0, ptr %3, align 8, !tbaa !3
  store i32 %1, ptr %4, align 4, !tbaa !8
  call void @llvm.lifetime.start.p0(i64 8, ptr %5) #13
  %11 = load ptr, ptr %3, align 8, !tbaa !3
  %12 = load i32, ptr %4, align 4, !tbaa !8
  %13 = call ptr @Gia_ManDsdMatrix(ptr noundef %11, i32 noundef %12)
  store ptr %13, ptr %5, align 8, !tbaa !3
  call void @llvm.lifetime.start.p0(i64 4, ptr %6) #13
  call void @llvm.lifetime.start.p0(i64 4, ptr %7) #13
  call void @llvm.lifetime.start.p0(i64 4, ptr %8) #13
  store i32 1, ptr %8, align 4, !tbaa !8
  call void @llvm.lifetime.start.p0(i64 4, ptr %9) #13
  store i32 0, ptr %9, align 4, !tbaa !8
  call void @llvm.lifetime.start.p0(i64 8, ptr %10) #13
  %14 = load ptr, ptr %5, align 8, !tbaa !3
  %15 = call ptr @Cec4_ManSimulateTest3(ptr noundef %14, i32 noundef 0, i32 noundef 0)
  store ptr %15, ptr %10, align 8, !tbaa !3
  %16 = load ptr, ptr %5, align 8, !tbaa !3
  call void @Gia_ManStop(ptr noundef %16)
  %17 = call i32 (ptr, ...) @printf(ptr noundef @.str.31, i32 noundef 32)
  store i32 0, ptr %7, align 4, !tbaa !8
  br label %18

18:                                               ; preds = %26, %2
  %19 = load i32, ptr %7, align 4, !tbaa !8
  %20 = load ptr, ptr %3, align 8, !tbaa !3
  %21 = call i32 @Gia_ManPiNum(ptr noundef %20)
  %22 = icmp slt i32 %19, %21
  br i1 %22, label %23, label %29

23:                                               ; preds = %18
  %24 = load i32, ptr %7, align 4, !tbaa !8
  %25 = call i32 (ptr, ...) @printf(ptr noundef @.str.32, i32 noundef %24)
  br label %26

26:                                               ; preds = %23
  %27 = load i32, ptr %7, align 4, !tbaa !8
  %28 = add nsw i32 %27, 1
  store i32 %28, ptr %7, align 4, !tbaa !8
  br label %18, !llvm.loop !115

29:                                               ; preds = %18
  %30 = call i32 (ptr, ...) @printf(ptr noundef @.str.8)
  store i32 0, ptr %6, align 4, !tbaa !8
  br label %31

31:                                               ; preds = %84, %29
  %32 = load i32, ptr %6, align 4, !tbaa !8
  %33 = load ptr, ptr %3, align 8, !tbaa !3
  %34 = call i32 @Gia_ManPiNum(ptr noundef %33)
  %35 = icmp slt i32 %32, %34
  br i1 %35, label %36, label %88

36:                                               ; preds = %31
  store i32 0, ptr %7, align 4, !tbaa !8
  br label %37

37:                                               ; preds = %80, %36
  %38 = load i32, ptr %7, align 4, !tbaa !8
  %39 = load ptr, ptr %3, align 8, !tbaa !3
  %40 = call i32 @Gia_ManPiNum(ptr noundef %39)
  %41 = icmp slt i32 %38, %40
  br i1 %41, label %42, label %83

42:                                               ; preds = %37
  %43 = load i32, ptr %8, align 4, !tbaa !8
  %44 = icmp ne i32 %43, 0
  br i1 %44, label %45, label %48

45:                                               ; preds = %42
  %46 = load i32, ptr %6, align 4, !tbaa !8
  %47 = call i32 (ptr, ...) @printf(ptr noundef @.str.33, i32 noundef %46)
  store i32 0, ptr %8, align 4, !tbaa !8
  br label %48

48:                                               ; preds = %45, %42
  %49 = load i32, ptr %6, align 4, !tbaa !8
  %50 = load i32, ptr %4, align 4, !tbaa !8
  %51 = icmp eq i32 %49, %50
  br i1 %51, label %52, label %53

52:                                               ; preds = %48
  br label %80

53:                                               ; preds = %48
  %54 = load i32, ptr %7, align 4, !tbaa !8
  %55 = load i32, ptr %4, align 4, !tbaa !8
  %56 = icmp eq i32 %54, %55
  br i1 %56, label %57, label %59

57:                                               ; preds = %53
  %58 = call i32 (ptr, ...) @printf(ptr noundef @.str.34, i32 noundef 32)
  br label %79

59:                                               ; preds = %53
  %60 = load i32, ptr %7, align 4, !tbaa !8
  %61 = load i32, ptr %6, align 4, !tbaa !8
  %62 = icmp sgt i32 %60, %61
  br i1 %62, label %63, label %76

63:                                               ; preds = %59
  %64 = load ptr, ptr %10, align 8, !tbaa !3
  %65 = load ptr, ptr %10, align 8, !tbaa !3
  %66 = load i32, ptr %9, align 4, !tbaa !8
  %67 = add nsw i32 %66, 1
  store i32 %67, ptr %9, align 4, !tbaa !8
  %68 = call ptr @Gia_ManPo(ptr noundef %65, i32 noundef %66)
  %69 = call i32 @Gia_ObjFaninLit0p(ptr noundef %64, ptr noundef %68)
  %70 = icmp eq i32 %69, 0
  br i1 %70, label %71, label %73

71:                                               ; preds = %63
  %72 = call i32 (ptr, ...) @printf(ptr noundef @.str.34, i32 noundef 46)
  br label %75

73:                                               ; preds = %63
  %74 = call i32 (ptr, ...) @printf(ptr noundef @.str.34, i32 noundef 43)
  br label %75

75:                                               ; preds = %73, %71
  br label %78

76:                                               ; preds = %59
  %77 = call i32 (ptr, ...) @printf(ptr noundef @.str.34, i32 noundef 32)
  br label %78

78:                                               ; preds = %76, %75
  br label %79

79:                                               ; preds = %78, %57
  br label %80

80:                                               ; preds = %79, %52
  %81 = load i32, ptr %7, align 4, !tbaa !8
  %82 = add nsw i32 %81, 1
  store i32 %82, ptr %7, align 4, !tbaa !8
  br label %37, !llvm.loop !116

83:                                               ; preds = %37
  br label %84

84:                                               ; preds = %83
  %85 = load i32, ptr %6, align 4, !tbaa !8
  %86 = add nsw i32 %85, 1
  store i32 %86, ptr %6, align 4, !tbaa !8
  %87 = call i32 (ptr, ...) @printf(ptr noundef @.str.8)
  store i32 1, ptr %8, align 4, !tbaa !8
  br label %31, !llvm.loop !117

88:                                               ; preds = %31
  %89 = load ptr, ptr %10, align 8, !tbaa !3
  call void @Gia_ManStop(ptr noundef %89)
  call void @llvm.lifetime.end.p0(i64 8, ptr %10) #13
  call void @llvm.lifetime.end.p0(i64 4, ptr %9) #13
  call void @llvm.lifetime.end.p0(i64 4, ptr %8) #13
  call void @llvm.lifetime.end.p0(i64 4, ptr %7) #13
  call void @llvm.lifetime.end.p0(i64 4, ptr %6) #13
  call void @llvm.lifetime.end.p0(i64 8, ptr %5) #13
  ret void
}