; Function Attrs: nounwind uwtable
define void @Gia_ManPrintDsdMatrix(ptr noundef %0, i32 noundef %1) local_unnamed_addr #0 {
  %3 = tail call ptr @Gia_ManDsdMatrix(ptr noundef %0, i32 noundef %1)
  %4 = tail call ptr @Cec4_ManSimulateTest3(ptr noundef %3, i32 noundef 0, i32 noundef 0) #27
  tail call void @Gia_ManStop(ptr noundef %3) #27
  %5 = tail call i32 (ptr, ...) @printf(ptr noundef nonnull dereferenceable(1) @.str.31, i32 noundef 32)
  %6 = getelementptr i8, ptr %0, i64 16
  %7 = getelementptr i8, ptr %0, i64 64
  %.val3642 = load i32, ptr %6, align 8, !tbaa !98
  %.val3743 = load ptr, ptr %7, align 8, !tbaa !12
  %8 = getelementptr i8, ptr %.val3743, i64 4
  %.val37.val44 = load i32, ptr %8, align 4, !tbaa !30
  %9 = icmp sgt i32 %.val37.val44, %.val3642
  br i1 %9, label %.lr.ph, label %._crit_edge

.lr.ph:                                           ; preds = %2, %.lr.ph
  %.02945 = phi i32 [ %11, %.lr.ph ], [ 0, %2 ]
  %10 = tail call i32 (ptr, ...) @printf(ptr noundef nonnull dereferenceable(1) @.str.32, i32 noundef %.02945)
  %11 = add nuw nsw i32 %.02945, 1
  %.val36 = load i32, ptr %6, align 8, !tbaa !98
  %.val37 = load ptr, ptr %7, align 8, !tbaa !12
  %12 = getelementptr i8, ptr %.val37, i64 4
  %.val37.val = load i32, ptr %12, align 4, !tbaa !30
  %13 = sub nsw i32 %.val37.val, %.val36
  %14 = icmp slt i32 %11, %13
  br i1 %14, label %.lr.ph, label %._crit_edge, !llvm.loop !112

._crit_edge:                                      ; preds = %.lr.ph, %2
  %putchar = tail call i32 @putchar(i32 10)
  %.val3454 = load i32, ptr %6, align 8, !tbaa !98
  %.val3555 = load ptr, ptr %7, align 8, !tbaa !12
  %15 = getelementptr i8, ptr %.val3555, i64 4
  %.val35.val56 = load i32, ptr %15, align 4, !tbaa !30
  %16 = icmp sgt i32 %.val35.val56, %.val3454
  br i1 %16, label %.preheader.lr.ph, label %._crit_edge60

.preheader.lr.ph:                                 ; preds = %._crit_edge
  %17 = getelementptr i8, ptr %4, i64 32
  %18 = getelementptr i8, ptr %4, i64 72
  br label %.preheader

.preheader:                                       ; preds = %.preheader.lr.ph, %._crit_edge53
  %.val33.val48 = phi i32 [ %.val35.val56, %.preheader.lr.ph ], [ %.val35.val, %._crit_edge53 ]
  %.val3347 = phi ptr [ %.val3555, %.preheader.lr.ph ], [ %.val35, %._crit_edge53 ]
  %.val46 = phi i32 [ %.val3454, %.preheader.lr.ph ], [ %.val34, %._crit_edge53 ]
  %.058 = phi i32 [ 0, %.preheader.lr.ph ], [ %55, %._crit_edge53 ]
  %.02557 = phi i32 [ 0, %.preheader.lr.ph ], [ %.1.lcssa, %._crit_edge53 ]
  %19 = icmp sgt i32 %.val33.val48, %.val46
  br i1 %19, label %.lr.ph52, label %._crit_edge53

.lr.ph52:                                         ; preds = %.preheader
  %20 = icmp eq i32 %.058, %1
  br i1 %20, label %.lr.ph52.split.us, label %.lr.ph52.split

.lr.ph52.split.us:                                ; preds = %.lr.ph52, %23
  %.val33.us67 = phi ptr [ %.val33.us, %23 ], [ %.val3347, %.lr.ph52 ]
  %.val.us65 = phi i32 [ %.val.us, %23 ], [ %.val46, %.lr.ph52 ]
  %.not50.us = phi i1 [ true, %23 ], [ false, %.lr.ph52 ]
  %.13049.us = phi i32 [ %24, %23 ], [ 0, %.lr.ph52 ]
  br i1 %.not50.us, label %23, label %21

21:                                               ; preds = %.lr.ph52.split.us
  %22 = tail call i32 (ptr, ...) @printf(ptr noundef nonnull dereferenceable(1) @.str.33, i32 noundef %1)
  %.val.us.pre = load i32, ptr %6, align 8, !tbaa !98
  %.val33.us.pre = load ptr, ptr %7, align 8, !tbaa !12
  br label %23

23:                                               ; preds = %21, %.lr.ph52.split.us
  %.val33.us = phi ptr [ %.val33.us.pre, %21 ], [ %.val33.us67, %.lr.ph52.split.us ]
  %.val.us = phi i32 [ %.val.us.pre, %21 ], [ %.val.us65, %.lr.ph52.split.us ]
  %24 = add nuw nsw i32 %.13049.us, 1
  %25 = getelementptr i8, ptr %.val33.us, i64 4
  %.val33.val.us = load i32, ptr %25, align 4, !tbaa !30
  %26 = sub nsw i32 %.val33.val.us, %.val.us
  %27 = icmp slt i32 %24, %26
  br i1 %27, label %.lr.ph52.split.us, label %._crit_edge53, !llvm.loop !113

.lr.ph52.split:                                   ; preds = %.lr.ph52, %49
  %.151 = phi i32 [ %.2, %49 ], [ %.02557, %.lr.ph52 ]
  %.not50 = phi i1 [ true, %49 ], [ false, %.lr.ph52 ]
  %.13049 = phi i32 [ %51, %49 ], [ 0, %.lr.ph52 ]
  br i1 %.not50, label %30, label %28

28:                                               ; preds = %.lr.ph52.split
  %29 = tail call i32 (ptr, ...) @printf(ptr noundef nonnull dereferenceable(1) @.str.33, i32 noundef %.058)
  br label %30

30:                                               ; preds = %28, %.lr.ph52.split
  %31 = icmp ne i32 %.13049, %1
  %32 = icmp samesign ugt i32 %.13049, %.058
  %or.cond = select i1 %31, i1 %32, i1 false
  br i1 %or.cond, label %33, label %49

33:                                               ; preds = %30
  %34 = add nsw i32 %.151, 1
  %.val38 = load ptr, ptr %17, align 8, !tbaa !40
  %.val39 = load ptr, ptr %18, align 8, !tbaa !34
  %35 = getelementptr i8, ptr %.val39, i64 8
  %.val39.val = load ptr, ptr %35, align 8, !tbaa !32
  %36 = sext i32 %.151 to i64
  %37 = getelementptr inbounds i32, ptr %.val39.val, i64 %36
  %38 = load i32, ptr %37, align 4, !tbaa !43
  %39 = sext i32 %38 to i64
  %40 = getelementptr inbounds %struct.Gia_Obj_t_, ptr %.val38, i64 %39
  %.val3.i.i = load i64, ptr %40, align 4
  %41 = trunc i64 %.val3.i.i to i32
  %42 = and i32 %41, 536870911
  %43 = sub nsw i32 %38, %42
  %44 = lshr i32 %41, 29
  %45 = and i32 %44, 1
  %46 = shl nsw i32 %43, 1
  %47 = or disjoint i32 %46, %45
  %48 = icmp eq i32 %47, 0
  %. = select i1 %48, i32 46, i32 43
  br label %49

49:                                               ; preds = %33, %30
  %.sink = phi i32 [ 32, %30 ], [ %., %33 ]
  %.2 = phi i32 [ %.151, %30 ], [ %34, %33 ]
  %50 = tail call i32 (ptr, ...) @printf(ptr noundef nonnull dereferenceable(1) @.str.34, i32 noundef %.sink)
  %51 = add nuw nsw i32 %.13049, 1
  %.val = load i32, ptr %6, align 8, !tbaa !98
  %.val33 = load ptr, ptr %7, align 8, !tbaa !12
  %52 = getelementptr i8, ptr %.val33, i64 4
  %.val33.val = load i32, ptr %52, align 4, !tbaa !30
  %53 = sub nsw i32 %.val33.val, %.val
  %54 = icmp slt i32 %51, %53
  br i1 %54, label %.lr.ph52.split, label %._crit_edge53, !llvm.loop !113

._crit_edge53:                                    ; preds = %49, %23, %.preheader
  %.1.lcssa = phi i32 [ %.02557, %.preheader ], [ %.02557, %23 ], [ %.2, %49 ]
  %55 = add nuw nsw i32 %.058, 1
  %putchar32 = tail call i32 @putchar(i32 10)
  %.val34 = load i32, ptr %6, align 8, !tbaa !98
  %.val35 = load ptr, ptr %7, align 8, !tbaa !12
  %56 = getelementptr i8, ptr %.val35, i64 4
  %.val35.val = load i32, ptr %56, align 4, !tbaa !30
  %57 = sub nsw i32 %.val35.val, %.val34
  %58 = icmp slt i32 %55, %57
  br i1 %58, label %.preheader, label %._crit_edge60, !llvm.loop !114

._crit_edge60:                                    ; preds = %._crit_edge53, %._crit_edge
  tail call void @Gia_ManStop(ptr noundef %4) #27
  ret void
}